; Function Attrs: nofree nosync nounwind memory(readwrite, inaccessiblemem: none) uwtable
define range(i32 0, 2) i32 @Dch_ObjCheckTfi_rec(ptr noundef %0, ptr noundef %1) local_unnamed_addr #0 {
  %3 = getelementptr i8, ptr %0, i64 312
  %4 = icmp eq ptr %1, null
  br i1 %4, label %._crit_edge, label %.lr.ph

.lr.ph:                                           ; preds = %2
  %5 = getelementptr i8, ptr %0, i64 248
  br label %6

6:                                                ; preds = %.lr.ph, %Aig_ObjEquiv.exit
  %.tr2627 = phi ptr [ %1, %.lr.ph ], [ %30, %Aig_ObjEquiv.exit ]
  %7 = getelementptr i8, ptr %.tr2627, i64 24
  %.val21 = load i64, ptr %7, align 8
  %8 = and i64 %.val21, 7
  %.not = icmp eq i64 %8, 2
  br i1 %.not, label %._crit_edge, label %9

9:                                                ; preds = %6
  %10 = and i64 %.val21, 16
  %.not15 = icmp eq i64 %10, 0
  br i1 %.not15, label %11, label %._crit_edge

11:                                               ; preds = %9
  %.val = load i32, ptr %3, align 8
  %12 = getelementptr i8, ptr %.tr2627, i64 32
  %.val19 = load i32, ptr %12, align 8
  %.not25 = icmp eq i32 %.val19, %.val
  br i1 %.not25, label %._crit_edge, label %13

13:                                               ; preds = %11
  store i32 %.val, ptr %12, align 8
  %14 = getelementptr i8, ptr %.tr2627, i64 8
  %.val22 = load ptr, ptr %14, align 8
  %15 = ptrtoint ptr %.val22 to i64
  %16 = and i64 %15, -2
  %17 = inttoptr i64 %16 to ptr
  %18 = tail call i32 @Dch_ObjCheckTfi_rec(ptr noundef nonnull %0, ptr noundef %17)
  %.not17 = icmp eq i32 %18, 0
  br i1 %.not17, label %19, label %._crit_edge

19:                                               ; preds = %13
  %20 = getelementptr i8, ptr %.tr2627, i64 16
  %.val23 = load ptr, ptr %20, align 8
  %21 = ptrtoint ptr %.val23 to i64
  %22 = and i64 %21, -2
  %23 = inttoptr i64 %22 to ptr
  %24 = tail call i32 @Dch_ObjCheckTfi_rec(ptr noundef nonnull %0, ptr noundef %23)
  %.not18 = icmp eq i32 %24, 0
  br i1 %.not18, label %25, label %._crit_edge

25:                                               ; preds = %19
  %.val24 = load ptr, ptr %5, align 8
  %.not.i = icmp eq ptr %.val24, null
  br i1 %.not.i, label %._crit_edge, label %Aig_ObjEquiv.exit

Aig_ObjEquiv.exit:                                ; preds = %25
  %26 = getelementptr inbounds nuw i8, ptr %.tr2627, i64 36
  %27 = load i32, ptr %26, align 4
  %28 = sext i32 %27 to i64
  %29 = getelementptr inbounds ptr, ptr %.val24, i64 %28
  %30 = load ptr, ptr %29, align 8
  %31 = icmp eq ptr %30, null
  br i1 %31, label %._crit_edge, label %6

._crit_edge:                                      ; preds = %25, %Aig_ObjEquiv.exit, %6, %9, %11, %13, %19, %2
  %.0 = phi i32 [ 0, %2 ], [ 0, %25 ], [ 1, %19 ], [ 1, %13 ], [ 0, %11 ], [ 1, %9 ], [ 0, %6 ], [ 0, %Aig_ObjEquiv.exit ]
  ret i32 %.0
}